; ModuleID = '49/893.c'
source_filename = "49/893.c"
target datalayout = "e-m:e-p270:32:32-p271:32:32-p272:64:64-i64:64-f80:128-n8:16:32:64-S128"
target triple = "x86_64-pc-linux-gnu"

@.str = private unnamed_addr constant [3 x i8] c"%s\00", align 1
@.str.1 = private unnamed_addr constant [2 x i8] c"\0A\00", align 1
@.str.2 = private unnamed_addr constant [3 x i8] c"%c\00", align 1

; Function Attrs: noinline nounwind uwtable
define dso_local i32 @main() #0 {
  %1 = alloca i32, align 4
  %2 = alloca i32, align 4
  %3 = alloca i32, align 4
  %4 = alloca i32, align 4
  %5 = alloca i32, align 4
  %6 = alloca [500 x i8], align 16
  %7 = alloca i32, align 4
  store i32 0, i32* %1, align 4
  store i32 1, i32* %3, align 4
  %8 = getelementptr inbounds [500 x i8], [500 x i8]* %6, i64 0, i64 0
  %9 = call i32 (i8*, ...) @__isoc99_scanf(i8* getelementptr inbounds ([3 x i8], [3 x i8]* @.str, i64 0, i64 0), i8* %8)
  %10 = getelementptr inbounds [500 x i8], [500 x i8]* %6, i64 0, i64 0
  %11 = call i64 @strlen(i8* %10) #3
  %12 = trunc i64 %11 to i32
  store i32 %12, i32* %2, align 4
  store i32 1, i32* %4, align 4
  br label %13

13:                                               ; preds = %65, %0
  %14 = load i32, i32* %4, align 4
  %15 = load i32, i32* %2, align 4
  %16 = sub nsw i32 %15, 1
  %17 = icmp sle i32 %14, %16
  br i1 %17, label %18, label %68

18:                                               ; preds = %13
  store i32 0, i32* %5, align 4
  br label %19

19:                                               ; preds = %61, %18
  %20 = load i32, i32* %5, align 4
  %21 = load i32, i32* %2, align 4
  %22 = load i32, i32* %4, align 4
  %23 = sub nsw i32 %21, %22
  %24 = sub nsw i32 %23, 1
  %25 = icmp sle i32 %20, %24
  br i1 %25, label %26, label %64

26:                                               ; preds = %19
  %27 = load i32, i32* %5, align 4
  %28 = load i32, i32* %5, align 4
  %29 = load i32, i32* %4, align 4
  %30 = add nsw i32 %28, %29
  %31 = getelementptr inbounds [500 x i8], [500 x i8]* %6, i64 0, i64 0
  %32 = call i32 @judge(i32 %27, i32 %30, i8* %31)
  store i32 %32, i32* %7, align 4
  %33 = load i32, i32* %7, align 4
  %34 = icmp eq i32 %33, 1
  br i1 %34, label %35, label %46

35:                                               ; preds = %26
  %36 = load i32, i32* %3, align 4
  %37 = icmp eq i32 %36, 1
  br i1 %37, label %38, label %46

38:                                               ; preds = %35
  %39 = load i32, i32* %5, align 4
  %40 = load i32, i32* %5, align 4
  %41 = load i32, i32* %4, align 4
  %42 = add nsw i32 %40, %41
  %43 = getelementptr inbounds [500 x i8], [500 x i8]* %6, i64 0, i64 0
  call void @print(i32 %39, i32 %42, i8* %43)
  %44 = load i32, i32* %3, align 4
  %45 = add nsw i32 %44, 1
  store i32 %45, i32* %3, align 4
  br label %60

46:                                               ; preds = %35, %26
  %47 = load i32, i32* %7, align 4
  %48 = icmp eq i32 %47, 1
  br i1 %48, label %49, label %59

49:                                               ; preds = %46
  %50 = load i32, i32* %3, align 4
  %51 = icmp ne i32 %50, 1
  br i1 %51, label %52, label %59

52:                                               ; preds = %49
  %53 = call i32 (i8*, ...) @printf(i8* getelementptr inbounds ([2 x i8], [2 x i8]* @.str.1, i64 0, i64 0))
  %54 = load i32, i32* %5, align 4
  %55 = load i32, i32* %5, align 4
  %56 = load i32, i32* %4, align 4
  %57 = add nsw i32 %55, %56
  %58 = getelementptr inbounds [500 x i8], [500 x i8]* %6, i64 0, i64 0
  call void @print(i32 %54, i32 %57, i8* %58)
  br label %59

59:                                               ; preds = %52, %49, %46
  br label %60

60:                                               ; preds = %59, %38
  br label %61

61:                                               ; preds = %60
  %62 = load i32, i32* %5, align 4
  %63 = add nsw i32 %62, 1
  store i32 %63, i32* %5, align 4
  br label %19

64:                                               ; preds = %19
  br label %65

65:                                               ; preds = %64
  %66 = load i32, i32* %4, align 4
  %67 = add nsw i32 %66, 1
  store i32 %67, i32* %4, align 4
  br label %13

68:                                               ; preds = %13
  ret i32 0
}

declare dso_local i32 @__isoc99_scanf(i8*, ...) #1

; Function Attrs: nounwind readonly
declare dso_local i64 @strlen(i8*) #2

; Function Attrs: noinline nounwind uwtable
define dso_local i32 @judge(i32 %0, i32 %1, i8* %2) #0 {
  %4 = alloca i32, align 4
  %5 = alloca i32, align 4
  %6 = alloca i32, align 4
  %7 = alloca i8*, align 8
  store i32 %0, i32* %5, align 4
  store i32 %1, i32* %6, align 4
  store i8* %2, i8** %7, align 8
  %8 = load i32, i32* %5, align 4
  %9 = load i32, i32* %6, align 4
  %10 = icmp sge i32 %8, %9
  br i1 %10, label %11, label %12

11:                                               ; preds = %3
  store i32 1, i32* %4, align 4
  br label %52

12:                                               ; preds = %3
  %13 = load i8*, i8** %7, align 8
  %14 = load i32, i32* %5, align 4
  %15 = sext i32 %14 to i64
  %16 = getelementptr inbounds i8, i8* %13, i64 %15
  %17 = load i8, i8* %16, align 1
  %18 = sext i8 %17 to i32
  %19 = load i8*, i8** %7, align 8
  %20 = load i32, i32* %6, align 4
  %21 = sext i32 %20 to i64
  %22 = getelementptr inbounds i8, i8* %19, i64 %21
  %23 = load i8, i8* %22, align 1
  %24 = sext i8 %23 to i32
  %25 = icmp ne i32 %18, %24
  br i1 %25, label %26, label %27

26:                                               ; preds = %12
  store i32 0, i32* %4, align 4
  br label %52

27:                                               ; preds = %12
  %28 = load i8*, i8** %7, align 8
  %29 = load i32, i32* %5, align 4
  %30 = sext i32 %29 to i64
  %31 = getelementptr inbounds i8, i8* %28, i64 %30
  %32 = load i8, i8* %31, align 1
  %33 = sext i8 %32 to i32
  %34 = load i8*, i8** %7, align 8
  %35 = load i32, i32* %6, align 4
  %36 = sext i32 %35 to i64
  %37 = getelementptr inbounds i8, i8* %34, i64 %36
  %38 = load i8, i8* %37, align 1
  %39 = sext i8 %38 to i32
  %40 = icmp eq i32 %33, %39
  br i1 %40, label %41, label %50

41:                                               ; preds = %27
  %42 = load i32, i32* %5, align 4
  %43 = add nsw i32 %42, 1
  store i32 %43, i32* %5, align 4
  %44 = load i32, i32* %6, align 4
  %45 = add nsw i32 %44, -1
  store i32 %45, i32* %6, align 4
  %46 = load i32, i32* %5, align 4
  %47 = load i32, i32* %6, align 4
  %48 = load i8*, i8** %7, align 8
  %49 = call i32 @judge(i32 %46, i32 %47, i8* %48)
  store i32 %49, i32* %4, align 4
  br label %52

50:                                               ; preds = %27
  br label %51

51:                                               ; preds = %50
  br label %52

52:                                               ; preds = %11, %26, %41, %51
  %53 = load i32, i32* %4, align 4
  ret i32 %53
}

; Function Attrs: noinline nounwind uwtable
define dso_local void @print(i32 %0, i32 %1, i8* %2) #0 {
  %4 = alloca i32, align 4
  %5 = alloca i32, align 4
  %6 = alloca i8*, align 8
  %7 = alloca i32, align 4
  store i32 %0, i32* %4, align 4
  store i32 %1, i32* %5, align 4
  store i8* %2, i8** %6, align 8
  %8 = load i32, i32* %4, align 4
  store i32 %8, i32* %7, align 4
  br label %9

9:                                                ; preds = %21, %3
  %10 = load i32, i32* %7, align 4
  %11 = load i32, i32* %5, align 4
  %12 = icmp sle i32 %10, %11
  br i1 %12, label %13, label %24

13:                                               ; preds = %9
  %14 = load i8*, i8** %6, align 8
  %15 = load i32, i32* %7, align 4
  %16 = sext i32 %15 to i64
  %17 = getelementptr inbounds i8, i8* %14, i64 %16
  %18 = load i8, i8* %17, align 1
  %19 = sext i8 %18 to i32
  %20 = call i32 (i8*, ...) @printf(i8* getelementptr inbounds ([3 x i8], [3 x i8]* @.str.2, i64 0, i64 0), i32 %19)
  br label %21

21:                                               ; preds = %13
  %22 = load i32, i32* %7, align 4
  %23 = add nsw i32 %22, 1
  store i32 %23, i32* %7, align 4
  br label %9

24:                                               ; preds = %9
  ret void
}

declare dso_local i32 @printf(i8*, ...) #1


!llvm.module.flags = !{!0}
!llvm.ident = !{!1}

!0 = !{i32 1, !"wchar_size", i32 4}
!1 = !{!"clang version 10.0.0-4ubuntu1 "}
